Certificate:
    Data:
        Version: 3 (0x2)
        Serial Number: 1 (0x1)
    Signature Algorithm: sha1WithRSAEncryption
        Issuer: DC=org, DC=simple, O=Simple Inc, OU=Simple Signing CA, CN=Simple Signing CA
        Validity
            Not Before: Apr 22 07:13:34 2019 GMT
            Not After : Apr 21 07:13:34 2021 GMT
        Subject: DC=org, DC=simple, DC=simple, O=Simple Inc, OU=Simple Signing CA, CN=Fred Flintstone
        Subject Public Key Info:
            Public Key Algorithm: rsaEncryption
                Public-Key: (2048 bit)
                Modulus:
                    00:e5:5c:af:30:d7:cd:e8:c8:29:70:80:9d:2e:a2:
                    92:90:23:b3:89:54:d8:77:40:82:8b:c5:45:fe:f1:
                    d6:b6:2f:89:b8:a5:40:3e:ee:ef:26:6f:1b:7e:ae:
                    3c:db:f6:e3:49:9d:e3:a6:5b:95:c6:3f:55:a7:3a:
                    ff:d1:f2:2e:e1:16:0f:05:a5:fc:ca:77:fb:dc:69:
                    c7:f7:f1:ec:d2:ac:37:b4:cc:eb:1d:55:1a:da:cb:
                    1f:95:7d:d7:6f:d1:8d:cd:e2:eb:86:9b:57:e2:44:
                    60:9c:86:7e:db:07:60:56:7b:37:52:72:49:77:4c:
                    08:75:91:cb:ab:f5:f0:16:eb:1f:1f:ea:a3:17:cf:
                    72:ef:3c:76:e4:61:e2:69:37:c3:01:af:b8:bf:11:
                    cc:4f:dd:14:3c:0e:e1:35:f6:6a:a8:9b:51:01:d1:
                    2c:7f:c7:0f:b9:5f:3b:d0:c3:7f:f1:16:c7:05:21:
                    6e:e2:83:38:88:d2:13:ae:b5:79:e0:d8:f8:6f:67:
                    57:d5:58:5a:82:bf:87:23:3c:57:0c:be:28:57:6e:
                    d3:4c:b0:10:52:45:46:aa:2d:59:83:e9:7d:7e:60:
                    f8:c5:04:a3:de:5a:29:0f:f1:74:1a:97:11:43:24:
                    5a:14:fa:a8:91:48:c3:36:b6:e1:38:75:89:fb:f3:
                    e8:a9
                Exponent: 65537 (0x10001)
        X509v3 extensions:
            X509v3 Key Usage: critical
                Digital Signature, Key Encipherment
            X509v3 Basic Constraints: 
                CA:FALSE
            X509v3 Extended Key Usage: 
                E-mail Protection, TLS Web Client Authentication
            X509v3 Subject Key Identifier: 
                FB:9D:DD:33:EF:78:7F:09:A0:EB:88:60:4F:E3:86:6F:C7:B0:44:69
            X509v3 Authority Key Identifier: 
                keyid:D2:47:3A:66:B6:2D:74:45:28:62:3C:AA:C7:07:96:82:6B:E8:D4:56

            X509v3 Subject Alternative Name: 
                email:fred@simple.org
    Signature Algorithm: sha1WithRSAEncryption
         26:f4:5f:db:62:91:3a:8b:53:16:2f:fb:b5:fa:8b:ec:4f:be:
         d7:02:44:f6:6f:ba:8d:31:87:f4:98:b8:5d:a1:0c:3c:10:a3:
         60:a5:42:c3:ba:04:75:33:97:77:fa:93:1b:b8:78:b3:a8:75:
         97:a9:2d:ae:6a:b7:99:c6:59:7a:cb:04:9a:d0:f1:c7:86:6e:
         12:fa:e7:d1:59:c9:1f:19:b9:c7:e5:91:7f:6e:4f:89:7c:98:
         04:18:88:25:e7:a2:f1:49:c7:13:f0:77:c2:d9:2d:40:1a:cb:
         5c:e0:b2:a5:1a:fc:e5:13:64:04:d7:75:48:41:2a:60:9f:a9:
         c5:5b:a6:43:0c:a1:cb:e3:2c:52:bb:7a:ce:be:22:ad:14:3d:
         7f:50:b4:e5:9f:30:f5:e0:9b:5b:c5:30:f1:22:64:4b:b6:10:
         fb:14:33:0c:86:d1:f3:49:c3:b8:92:64:fa:be:6d:bd:ea:96:
         87:63:3e:52:07:d7:c6:e2:5f:c7:b8:83:22:d4:ce:f8:76:19:
         0d:f1:53:95:a8:6d:2d:48:4e:e8:6a:1b:08:ff:eb:0a:0c:32:
         5a:16:29:26:08:ee:4e:7f:86:30:34:28:ec:1b:11:ba:ce:f1:
         c0:c9:b5:40:85:3b:ef:c9:07:6d:6b:59:dd:52:ad:eb:ad:57:
         9e:33:46:cc
-----BEGIN CERTIFICATE-----
MIIEIDCCAwigAwIBAgIBATANBgkqhkiG9w0BAQUFADB6MRMwEQYKCZImiZPyLGQB
GRYDb3JnMRYwFAYKCZImiZPyLGQBGRYGc2ltcGxlMRMwEQYDVQQKDApTaW1wbGUg
SW5jMRowGAYDVQQLDBFTaW1wbGUgU2lnbmluZyBDQTEaMBgGA1UEAwwRU2ltcGxl
IFNpZ25pbmcgQ0EwHhcNMTkwNDIyMDcxMzM0WhcNMjEwNDIxMDcxMzM0WjCBkDET
MBEGCgmSJomT8ixkARkWA29yZzEWMBQGCgmSJomT8ixkARkWBnNpbXBsZTEWMBQG
CgmSJomT8ixkARkWBnNpbXBsZTETMBEGA1UECgwKU2ltcGxlIEluYzEaMBgGA1UE
CwwRU2ltcGxlIFNpZ25pbmcgQ0ExGDAWBgNVBAMMD0ZyZWQgRmxpbnRzdG9uZTCC
ASIwDQYJKoZIhvcNAQEBBQADggEPADCCAQoCggEBAOVcrzDXzejIKXCAnS6ikpAj
s4lU2HdAgovFRf7x1rYvibilQD7u7yZvG36uPNv240md46ZblcY/Vac6/9HyLuEW
DwWl/Mp3+9xpx/fx7NKsN7TM6x1VGtrLH5V912/Rjc3i64abV+JEYJyGftsHYFZ7
N1JySXdMCHWRy6v18BbrHx/qoxfPcu88duRh4mk3wwGvuL8RzE/dFDwO4TX2aqib
UQHRLH/HD7lfO9DDf/EWxwUhbuKDOIjSE661eeDY+G9nV9VYWoK/hyM8Vwy+KFdu
00ywEFJFRqotWYPpfX5g+MUEo95aKQ/xdBqXEUMkWhT6qJFIwza24Th1ifvz6KkC
AwEAAaOBmTCBljAOBgNVHQ8BAf8EBAMCBaAwCQYDVR0TBAIwADAdBgNVHSUEFjAU
BggrBgEFBQcDBAYIKwYBBQUHAwIwHQYDVR0OBBYEFPud3TPveH8JoOuIYE/jhm/H
sERpMB8GA1UdIwQYMBaAFNJHOma2LXRFKGI8qscHloJr6NRWMBoGA1UdEQQTMBGB
D2ZyZWRAc2ltcGxlLm9yZzANBgkqhkiG9w0BAQUFAAOCAQEAJvRf22KROotTFi/7
tfqL7E++1wJE9m+6jTGH9Ji4XaEMPBCjYKVCw7oEdTOXd/qTG7h4s6h1l6ktrmq3
mcZZessEmtDxx4ZuEvrn0VnJHxm5x+WRf25PiXyYBBiIJeei8UnHE/B3wtktQBrL
XOCypRr85RNkBNd1SEEqYJ+pxVumQwyhy+MsUrt6zr4irRQ9f1C05Z8w9eCbW8Uw
8SJkS7YQ+xQzDIbR80nDuJJk+r5tveqWh2M+UgfXxuJfx7iDItTO+HYZDfFTlaht
LUhO6GobCP/rCgwyWhYpJgjuTn+GMDQo7BsRus7xwMm1QIU778kHbWtZ3VKt661X
njNGzA==
-----END CERTIFICATE-----
