Certificate:
    Data:
        Version: 3 (0x2)
        Serial Number: 2 (0x2)
    Signature Algorithm: sha1WithRSAEncryption
        Issuer: DC=org, DC=simple, O=Simple Inc, OU=Simple Signing CA, CN=Simple Signing CA
        Validity
            Not Before: Apr 22 07:16:19 2019 GMT
            Not After : Apr 21 07:16:19 2021 GMT
        Subject: DC=org, DC=simple, DC=simple, O=Simple Inc, OU=Simple Signing CA, CN=www.simple.org
        Subject Public Key Info:
            Public Key Algorithm: rsaEncryption
                Public-Key: (2048 bit)
                Modulus:
                    00:d0:7c:cc:13:d0:46:e3:0f:f0:cc:0a:57:d4:43:
                    93:fa:4e:4f:7e:7b:4e:52:09:87:1a:a9:45:79:59:
                    f4:cb:4b:99:8c:2f:73:7d:ac:3f:45:bd:d6:a6:46:
                    fb:cf:18:82:b6:c2:1a:c8:65:4e:fb:0b:20:c2:d7:
                    56:01:1a:ad:b4:bc:01:9b:3a:de:a6:d5:3e:1d:13:
                    83:0e:6a:c1:da:61:c3:27:10:bb:af:6c:6d:49:bc:
                    7b:5f:c5:3c:61:8d:65:5f:37:34:e6:c6:84:63:af:
                    b1:98:00:1d:80:ca:b1:e8:30:78:ac:89:3f:70:fa:
                    e8:a5:4f:4d:35:c7:c5:9b:e8:71:0d:c9:ed:12:f8:
                    23:e4:6b:a2:bf:7b:40:65:d9:85:8f:0b:35:dd:37:
                    49:b4:62:5c:0e:d5:5e:dd:cb:ad:e6:d6:17:db:44:
                    5d:3f:76:ff:6f:cc:31:8e:b5:22:7e:11:8b:55:1d:
                    c3:bb:4d:25:54:3b:63:9d:7a:68:5b:96:fa:89:ff:
                    51:d9:95:ec:ab:a5:ce:04:11:0b:ed:e5:fb:4e:06:
                    93:c8:69:a4:b4:e9:51:aa:2e:7b:02:b9:21:75:6f:
                    bb:a1:72:04:cf:ea:ad:3d:92:04:d4:8b:06:46:4e:
                    71:84:0f:f6:b5:ef:5e:dc:d4:9c:c5:b4:92:cf:b2:
                    56:3d
                Exponent: 65537 (0x10001)
        X509v3 extensions:
            X509v3 Key Usage: critical
                Digital Signature, Key Encipherment
            X509v3 Basic Constraints: 
                CA:FALSE
            X509v3 Extended Key Usage: 
                TLS Web Server Authentication, TLS Web Client Authentication
            X509v3 Subject Key Identifier: 
                B5:AE:88:BD:CC:C8:6A:41:44:03:0B:5C:4E:58:7C:99:F9:37:44:EB
            X509v3 Authority Key Identifier: 
                keyid:D2:47:3A:66:B6:2D:74:45:28:62:3C:AA:C7:07:96:82:6B:E8:D4:56

            X509v3 Subject Alternative Name: 
                DNS:www.simple.org
    Signature Algorithm: sha1WithRSAEncryption
         27:c5:d0:12:b6:56:2c:76:77:ce:99:6f:96:ba:a8:4a:18:26:
         35:ac:19:98:74:cc:15:7b:98:f7:0b:18:2f:75:68:32:3e:bc:
         68:ed:e5:59:b4:06:c2:db:7a:61:15:8b:cb:ac:98:a7:02:b0:
         0f:87:fc:92:be:1a:24:fb:82:9f:d3:5f:ba:53:33:4f:f3:d6:
         e4:f6:41:6d:a7:32:c7:81:80:f4:f5:40:f2:2e:53:3f:1a:3a:
         d5:12:10:ee:0a:ef:a0:60:69:04:36:04:8f:8a:c8:4b:d0:34:
         5a:cc:15:53:e1:b1:05:a5:d7:a8:2b:12:d7:b1:1e:20:12:21:
         87:83:ac:41:74:85:1c:97:bf:70:45:51:04:03:f1:53:b5:a3:
         1c:a6:33:27:b3:87:d2:cc:2e:9d:34:1a:bb:a8:8a:74:44:14:
         36:36:d0:19:86:e8:06:2a:d8:cd:d4:f7:25:ee:53:6e:2a:40:
         60:cb:9e:6d:5b:93:d6:12:ad:98:32:25:b8:76:61:9c:3a:ca:
         c4:1a:e9:62:ef:f9:2a:cb:50:c4:48:54:78:8c:0a:6e:5f:ed:
         67:6e:ae:aa:31:cb:d6:ae:20:a2:61:e9:73:12:81:67:4a:07:
         20:7c:d4:db:28:b7:56:ac:55:1b:32:bb:ca:55:7d:bd:7f:a3:
         07:a8:70:51
-----BEGIN CERTIFICATE-----
MIIEHjCCAwagAwIBAgIBAjANBgkqhkiG9w0BAQUFADB6MRMwEQYKCZImiZPyLGQB
GRYDb3JnMRYwFAYKCZImiZPyLGQBGRYGc2ltcGxlMRMwEQYDVQQKDApTaW1wbGUg
SW5jMRowGAYDVQQLDBFTaW1wbGUgU2lnbmluZyBDQTEaMBgGA1UEAwwRU2ltcGxl
IFNpZ25pbmcgQ0EwHhcNMTkwNDIyMDcxNjE5WhcNMjEwNDIxMDcxNjE5WjCBjzET
MBEGCgmSJomT8ixkARkWA29yZzEWMBQGCgmSJomT8ixkARkWBnNpbXBsZTEWMBQG
CgmSJomT8ixkARkWBnNpbXBsZTETMBEGA1UECgwKU2ltcGxlIEluYzEaMBgGA1UE
CwwRU2ltcGxlIFNpZ25pbmcgQ0ExFzAVBgNVBAMMDnd3dy5zaW1wbGUub3JnMIIB
IjANBgkqhkiG9w0BAQEFAAOCAQ8AMIIBCgKCAQEA0HzME9BG4w/wzApX1EOT+k5P
fntOUgmHGqlFeVn0y0uZjC9zfaw/Rb3Wpkb7zxiCtsIayGVO+wsgwtdWARqttLwB
mzreptU+HRODDmrB2mHDJxC7r2xtSbx7X8U8YY1lXzc05saEY6+xmAAdgMqx6DB4
rIk/cPropU9NNcfFm+hxDcntEvgj5Guiv3tAZdmFjws13TdJtGJcDtVe3cut5tYX
20RdP3b/b8wxjrUifhGLVR3Du00lVDtjnXpoW5b6if9R2ZXsq6XOBBEL7eX7TgaT
yGmktOlRqi57ArkhdW+7oXIEz+qtPZIE1IsGRk5xhA/2te9e3NScxbSSz7JWPQID
AQABo4GYMIGVMA4GA1UdDwEB/wQEAwIFoDAJBgNVHRMEAjAAMB0GA1UdJQQWMBQG
CCsGAQUFBwMBBggrBgEFBQcDAjAdBgNVHQ4EFgQUta6IvczIakFEAwtcTlh8mfk3
ROswHwYDVR0jBBgwFoAU0kc6ZrYtdEUoYjyqxweWgmvo1FYwGQYDVR0RBBIwEIIO
d3d3LnNpbXBsZS5vcmcwDQYJKoZIhvcNAQEFBQADggEBACfF0BK2Vix2d86Zb5a6
qEoYJjWsGZh0zBV7mPcLGC91aDI+vGjt5Vm0BsLbemEVi8usmKcCsA+H/JK+GiT7
gp/TX7pTM0/z1uT2QW2nMseBgPT1QPIuUz8aOtUSEO4K76BgaQQ2BI+KyEvQNFrM
FVPhsQWl16grEtexHiASIYeDrEF0hRyXv3BFUQQD8VO1oxymMyezh9LMLp00Gruo
inREFDY20BmG6AYq2M3U9yXuU24qQGDLnm1bk9YSrZgyJbh2YZw6ysQa6WLv+SrL
UMRIVHiMCm5f7Wdurqoxy9auIKJh6XMSgWdKByB81Nsot1asVRsyu8pVfb1/oweo
cFE=
-----END CERTIFICATE-----
