Certificate:
    Data:
        Version: 3 (0x2)
        Serial Number: 3 (0x3)
    Signature Algorithm: sha1WithRSAEncryption
        Issuer: DC=org, DC=simple, O=Simple Inc, OU=Simple Signing CA, CN=Simple Signing CA
        Validity
            Not Before: Apr 22 09:22:35 2019 GMT
            Not After : Apr 21 09:22:35 2021 GMT
        Subject: DC=org, DC=simple, DC=simple, O=Simple Inc, OU=Simple Signing CA, CN=Fred Flintstone
        Subject Public Key Info:
            Public Key Algorithm: rsaEncryption
                Public-Key: (2048 bit)
                Modulus:
                    00:af:d8:6d:df:a6:22:c7:5b:ac:dd:e2:6c:9d:81:
                    83:2e:a0:06:64:10:7e:98:d3:39:de:22:97:ad:04:
                    f6:89:7f:89:af:c7:41:22:d3:61:0b:cf:75:03:30:
                    98:9f:cd:7f:6c:82:74:5a:d3:14:c0:ba:23:7f:8f:
                    a1:c9:e4:1e:6e:5f:2e:c1:26:02:7f:26:74:1d:15:
                    a0:b3:90:61:6c:16:f1:8d:9d:92:53:51:39:88:6d:
                    33:8c:5e:bf:7c:b3:20:1c:17:f6:87:dd:17:b3:e6:
                    e2:97:58:b0:5a:40:7c:60:c1:93:79:49:d3:ec:19:
                    29:3b:c4:6d:96:09:43:07:9c:cd:68:03:a8:9e:64:
                    e4:ff:dd:17:ac:bf:48:f7:9e:67:52:36:55:96:e9:
                    b7:46:1d:56:ed:65:61:75:a6:45:5d:94:4c:cb:d5:
                    37:99:f3:71:fd:4b:a7:cc:d5:cc:02:45:b2:7f:19:
                    3a:69:d7:02:b7:d6:ce:78:66:51:bf:3e:7b:f3:45:
                    ae:cb:aa:35:24:9e:9e:d1:be:8a:d7:8a:91:2e:49:
                    ff:4d:c3:1f:90:a2:0c:4b:77:f2:eb:82:0e:ae:cd:
                    d2:14:d3:9b:d1:d8:56:1f:44:49:84:94:8a:46:1c:
                    4b:a4:d6:ae:19:2e:97:32:11:6a:86:d7:15:92:02:
                    03:f7
                Exponent: 65537 (0x10001)
        X509v3 extensions:
            X509v3 Key Usage: critical
                Digital Signature, Key Encipherment
            X509v3 Basic Constraints: 
                CA:FALSE
            X509v3 Extended Key Usage: 
                E-mail Protection, TLS Web Client Authentication
            X509v3 Subject Key Identifier: 
                6D:D3:8F:60:95:08:40:7A:7C:F2:B5:27:ED:A6:AB:89:41:8D:5B:A0
            X509v3 Authority Key Identifier: 
                keyid:D2:47:3A:66:B6:2D:74:45:28:62:3C:AA:C7:07:96:82:6B:E8:D4:56

            X509v3 Subject Alternative Name: 
                email:fred@simple.org
    Signature Algorithm: sha1WithRSAEncryption
         8a:81:d9:7f:1f:6a:3a:0e:99:5d:cf:43:40:f2:1d:ad:dc:94:
         a7:35:bf:f9:85:b2:df:b8:96:a5:48:88:87:f8:0f:a4:d5:d6:
         2a:49:d7:91:33:ad:22:c7:0e:7d:fc:e7:9a:90:82:9d:0c:79:
         da:e4:5a:6d:a5:64:5f:25:c1:62:1f:8d:15:f4:5c:4d:6e:cf:
         67:77:3a:b3:74:a0:e3:9f:ff:9c:0c:0b:ae:8e:8e:47:ad:1a:
         3f:23:0b:c6:20:fb:ff:8e:48:4b:5e:6f:d3:76:89:af:7f:26:
         54:30:8d:26:87:fd:8c:3e:f7:c8:6d:e1:3a:3b:1d:f9:4c:1a:
         f5:fe:fc:fe:27:79:2a:40:cf:40:fe:1b:98:a1:df:f5:36:78:
         8c:9c:aa:57:f1:09:0c:8c:6d:2c:51:48:6d:30:36:51:83:e0:
         fa:46:eb:7f:cb:7f:c5:60:fa:94:73:ff:28:92:f4:77:d3:7e:
         c8:1b:0f:a2:4d:56:55:63:f1:48:e0:83:f3:a2:fe:11:4a:65:
         c0:ee:a9:69:4d:ab:86:af:61:85:f9:ea:fd:08:5f:48:30:3b:
         e5:2e:fb:42:ba:1d:65:75:ca:60:2c:6b:d6:af:35:f5:7b:09:
         ad:91:db:86:67:fe:38:5a:68:fe:1a:92:ca:24:2d:18:77:0f:
         2e:09:9a:33
-----BEGIN CERTIFICATE-----
MIIEIDCCAwigAwIBAgIBAzANBgkqhkiG9w0BAQUFADB6MRMwEQYKCZImiZPyLGQB
GRYDb3JnMRYwFAYKCZImiZPyLGQBGRYGc2ltcGxlMRMwEQYDVQQKDApTaW1wbGUg
SW5jMRowGAYDVQQLDBFTaW1wbGUgU2lnbmluZyBDQTEaMBgGA1UEAwwRU2ltcGxl
IFNpZ25pbmcgQ0EwHhcNMTkwNDIyMDkyMjM1WhcNMjEwNDIxMDkyMjM1WjCBkDET
MBEGCgmSJomT8ixkARkWA29yZzEWMBQGCgmSJomT8ixkARkWBnNpbXBsZTEWMBQG
CgmSJomT8ixkARkWBnNpbXBsZTETMBEGA1UECgwKU2ltcGxlIEluYzEaMBgGA1UE
CwwRU2ltcGxlIFNpZ25pbmcgQ0ExGDAWBgNVBAMMD0ZyZWQgRmxpbnRzdG9uZTCC
ASIwDQYJKoZIhvcNAQEBBQADggEPADCCAQoCggEBAK/Ybd+mIsdbrN3ibJ2Bgy6g
BmQQfpjTOd4il60E9ol/ia/HQSLTYQvPdQMwmJ/Nf2yCdFrTFMC6I3+PocnkHm5f
LsEmAn8mdB0VoLOQYWwW8Y2dklNROYhtM4xev3yzIBwX9ofdF7Pm4pdYsFpAfGDB
k3lJ0+wZKTvEbZYJQweczWgDqJ5k5P/dF6y/SPeeZ1I2VZbpt0YdVu1lYXWmRV2U
TMvVN5nzcf1Lp8zVzAJFsn8ZOmnXArfWznhmUb8+e/NFrsuqNSSentG+iteKkS5J
/03DH5CiDEt38uuCDq7N0hTTm9HYVh9ESYSUikYcS6TWrhkulzIRaobXFZICA/cC
AwEAAaOBmTCBljAOBgNVHQ8BAf8EBAMCBaAwCQYDVR0TBAIwADAdBgNVHSUEFjAU
BggrBgEFBQcDBAYIKwYBBQUHAwIwHQYDVR0OBBYEFG3Tj2CVCEB6fPK1J+2mq4lB
jVugMB8GA1UdIwQYMBaAFNJHOma2LXRFKGI8qscHloJr6NRWMBoGA1UdEQQTMBGB
D2ZyZWRAc2ltcGxlLm9yZzANBgkqhkiG9w0BAQUFAAOCAQEAioHZfx9qOg6ZXc9D
QPIdrdyUpzW/+YWy37iWpUiIh/gPpNXWKknXkTOtIscOffznmpCCnQx52uRabaVk
XyXBYh+NFfRcTW7PZ3c6s3Sg45//nAwLro6OR60aPyMLxiD7/45IS15v03aJr38m
VDCNJof9jD73yG3hOjsd+Uwa9f78/id5KkDPQP4bmKHf9TZ4jJyqV/EJDIxtLFFI
bTA2UYPg+kbrf8t/xWD6lHP/KJL0d9N+yBsPok1WVWPxSOCD86L+EUplwO6paU2r
hq9hhfnq/QhfSDA75S77QrodZXXKYCxr1q819XsJrZHbhmf+OFpo/hqSyiQtGHcP
LgmaMw==
-----END CERTIFICATE-----
