Certificate:
    Data:
        Version: 3 (0x2)
        Serial Number: 2 (0x2)
    Signature Algorithm: sha1WithRSAEncryption
        Issuer: DC=org, DC=simple, O=Simple Inc, OU=Simple Root CA, CN=Simple Root CA
        Validity
            Not Before: Apr 22 06:51:54 2019 GMT
            Not After : Apr 21 06:51:54 2029 GMT
        Subject: DC=org, DC=simple, O=Simple Inc, OU=Simple Signing CA, CN=Simple Signing CA
        Subject Public Key Info:
            Public Key Algorithm: rsaEncryption
                Public-Key: (2048 bit)
                Modulus:
                    00:d8:60:6c:99:29:32:36:bf:54:d0:7d:7e:0e:c2:
                    34:e5:6b:0f:5e:39:c3:1a:30:7b:0a:2c:04:8f:80:
                    c6:39:d1:90:e4:1d:5f:8b:71:f2:20:fb:55:96:30:
                    a6:9b:1e:13:68:d7:7d:fb:c8:19:70:bf:42:a2:ef:
                    df:fd:97:73:3e:90:27:fd:b5:c0:66:f5:53:27:b4:
                    25:52:09:dd:46:60:d8:f5:d4:b6:2a:51:dc:c3:a0:
                    98:07:8b:47:26:2c:3b:cd:42:d8:c1:21:74:fc:e1:
                    27:66:de:8a:b1:3f:9c:23:36:21:93:29:a3:83:2b:
                    2d:a8:50:f6:ab:86:a5:e4:58:e9:75:c3:ee:aa:a9:
                    45:ad:ea:44:fc:fb:90:76:8a:bd:ce:b0:45:1b:0c:
                    ee:13:b7:c7:c2:fb:5e:ac:6f:82:35:1b:9a:ff:a7:
                    25:0b:3a:d3:3f:83:c1:a0:66:4d:ed:56:ad:ad:bb:
                    dd:af:00:f7:2e:08:b0:ce:bf:38:ed:34:c2:5d:95:
                    9e:f4:a7:7b:91:d1:f8:cf:80:f2:14:db:47:f7:1b:
                    16:d2:45:d3:a4:9e:9f:c9:1c:76:d5:c0:00:b4:2a:
                    aa:dd:d6:b4:34:8e:37:2e:c3:0b:f8:31:b3:5b:a6:
                    d8:b4:b6:d4:af:cf:81:7e:8d:53:40:46:66:50:5e:
                    82:13
                Exponent: 65537 (0x10001)
        X509v3 extensions:
            X509v3 Key Usage: critical
                Certificate Sign, CRL Sign
            X509v3 Basic Constraints: critical
                CA:TRUE, pathlen:0
            X509v3 Subject Key Identifier: 
                D2:47:3A:66:B6:2D:74:45:28:62:3C:AA:C7:07:96:82:6B:E8:D4:56
            X509v3 Authority Key Identifier: 
                keyid:CC:9C:E3:2F:21:5B:D6:76:F3:8F:83:4A:57:CF:B9:53:A6:31:3E:37

    Signature Algorithm: sha1WithRSAEncryption
         a9:4f:a4:75:9c:2e:44:1f:5f:16:b4:9d:80:8d:ef:ea:e9:68:
         92:3f:36:14:6a:df:e6:65:17:c9:0d:33:4d:31:8f:6e:6d:2d:
         71:34:07:79:31:cb:ff:df:1f:cf:fc:ae:d7:59:1d:6c:81:0c:
         0f:57:35:68:87:ee:f6:bc:f9:d5:e0:43:fc:5c:07:aa:50:2e:
         fa:0d:12:19:8f:1b:d0:3e:b0:b8:46:bb:bf:86:7f:fd:e7:9c:
         fb:85:0d:81:52:e3:48:72:85:e5:76:90:aa:b3:03:ef:e7:fc:
         69:93:e7:6b:a6:08:4c:d7:4e:45:95:f4:e2:0b:5f:65:4f:05:
         18:f2:58:34:f5:f9:31:80:7c:61:9d:a9:5e:3c:49:b1:3d:14:
         63:c1:84:fd:98:c5:91:57:89:05:ab:c7:7e:83:94:25:fb:fd:
         bc:fa:e0:58:49:29:a8:2a:06:cc:c8:fb:5e:cc:f6:0b:97:59:
         26:64:56:8e:ad:4b:83:0d:ee:eb:69:e6:72:a0:bd:3a:25:20:
         84:3c:e2:9c:87:f9:ba:78:54:ba:3e:f9:e3:1f:ad:27:9f:83:
         55:a0:0b:23:e6:ed:3d:c1:4e:23:50:8d:14:8c:86:19:e8:a6:
         e9:c4:2a:34:2b:ee:69:3b:10:ea:c1:2f:ec:e1:e5:c4:f3:7f:
         92:9c:84:b6
-----BEGIN CERTIFICATE-----
MIIDzzCCAregAwIBAgIBAjANBgkqhkiG9w0BAQUFADB0MRMwEQYKCZImiZPyLGQB
GRYDb3JnMRYwFAYKCZImiZPyLGQBGRYGc2ltcGxlMRMwEQYDVQQKDApTaW1wbGUg
SW5jMRcwFQYDVQQLDA5TaW1wbGUgUm9vdCBDQTEXMBUGA1UEAwwOU2ltcGxlIFJv
b3QgQ0EwHhcNMTkwNDIyMDY1MTU0WhcNMjkwNDIxMDY1MTU0WjB6MRMwEQYKCZIm
iZPyLGQBGRYDb3JnMRYwFAYKCZImiZPyLGQBGRYGc2ltcGxlMRMwEQYDVQQKDApT
aW1wbGUgSW5jMRowGAYDVQQLDBFTaW1wbGUgU2lnbmluZyBDQTEaMBgGA1UEAwwR
U2ltcGxlIFNpZ25pbmcgQ0EwggEiMA0GCSqGSIb3DQEBAQUAA4IBDwAwggEKAoIB
AQDYYGyZKTI2v1TQfX4OwjTlaw9eOcMaMHsKLASPgMY50ZDkHV+LcfIg+1WWMKab
HhNo1337yBlwv0Ki79/9l3M+kCf9tcBm9VMntCVSCd1GYNj11LYqUdzDoJgHi0cm
LDvNQtjBIXT84Sdm3oqxP5wjNiGTKaODKy2oUParhqXkWOl1w+6qqUWt6kT8+5B2
ir3OsEUbDO4Tt8fC+16sb4I1G5r/pyULOtM/g8GgZk3tVq2tu92vAPcuCLDOvzjt
NMJdlZ70p3uR0fjPgPIU20f3GxbSRdOknp/JHHbVwAC0Kqrd1rQ0jjcuwwv4MbNb
pti0ttSvz4F+jVNARmZQXoITAgMBAAGjZjBkMA4GA1UdDwEB/wQEAwIBBjASBgNV
HRMBAf8ECDAGAQH/AgEAMB0GA1UdDgQWBBTSRzpmti10RShiPKrHB5aCa+jUVjAf
BgNVHSMEGDAWgBTMnOMvIVvWdvOPg0pXz7lTpjE+NzANBgkqhkiG9w0BAQUFAAOC
AQEAqU+kdZwuRB9fFrSdgI3v6ulokj82FGrf5mUXyQ0zTTGPbm0tcTQHeTHL/98f
z/yu11kdbIEMD1c1aIfu9rz51eBD/FwHqlAu+g0SGY8b0D6wuEa7v4Z//eec+4UN
gVLjSHKF5XaQqrMD7+f8aZPna6YITNdORZX04gtfZU8FGPJYNPX5MYB8YZ2pXjxJ
sT0UY8GE/ZjFkVeJBavHfoOUJfv9vPrgWEkpqCoGzMj7Xsz2C5dZJmRWjq1Lgw3u
62nmcqC9OiUghDzinIf5unhUuj754x+tJ5+DVaALI+btPcFOI1CNFIyGGeim6cQq
NCvuaTsQ6sEv7OHlxPN/kpyEtg==
-----END CERTIFICATE-----
Certificate:
    Data:
        Version: 3 (0x2)
        Serial Number: 1 (0x1)
    Signature Algorithm: sha1WithRSAEncryption
        Issuer: DC=org, DC=simple, O=Simple Inc, OU=Simple Root CA, CN=Simple Root CA
        Validity
            Not Before: Apr 22 06:49:30 2019 GMT
            Not After : Apr 21 06:49:30 2029 GMT
        Subject: DC=org, DC=simple, O=Simple Inc, OU=Simple Root CA, CN=Simple Root CA
        Subject Public Key Info:
            Public Key Algorithm: rsaEncryption
                Public-Key: (2048 bit)
                Modulus:
                    00:bf:64:94:3c:cc:ac:ed:ae:55:10:48:10:11:0a:
                    91:89:fd:a5:8a:34:bd:08:96:33:d6:11:28:df:a8:
                    13:7c:13:6d:6f:e9:5b:40:da:4f:9e:6a:53:68:e5:
                    52:d5:44:2b:54:5c:8a:b6:e7:bf:b2:67:b0:44:d1:
                    27:83:df:f4:33:df:ed:84:84:53:34:27:d6:db:1c:
                    c4:ab:03:56:a8:0d:7e:b6:9a:cb:84:a9:71:5e:41:
                    da:f6:07:fc:6f:a2:b3:a0:5a:74:52:e8:d4:b2:aa:
                    e2:45:4d:19:e0:6e:02:4c:3d:8f:b2:a0:d5:6b:31:
                    fe:05:bb:37:05:b0:89:b3:72:b5:80:f2:4a:35:29:
                    25:c9:07:8a:a5:3b:77:d4:6c:bc:f1:4e:55:e8:bf:
                    f0:ab:a0:04:83:6d:9c:f4:28:b5:6b:27:34:a5:54:
                    59:84:67:dc:25:82:c2:dd:4c:c9:0e:b3:b0:97:13:
                    42:9a:97:18:6b:56:50:78:bb:b1:c2:1c:47:54:6c:
                    3c:49:41:7a:6c:ce:3a:35:0c:e8:43:46:57:de:33:
                    b4:63:ec:0f:87:b0:20:87:05:c8:b4:7a:3a:76:94:
                    41:78:88:1f:c2:f3:73:0b:2c:e5:07:51:5f:0e:66:
                    b0:3b:74:24:91:a2:9d:e3:bd:a1:5c:13:19:13:43:
                    8c:51
                Exponent: 65537 (0x10001)
        X509v3 extensions:
            X509v3 Key Usage: critical
                Certificate Sign, CRL Sign
            X509v3 Basic Constraints: critical
                CA:TRUE
            X509v3 Subject Key Identifier: 
                CC:9C:E3:2F:21:5B:D6:76:F3:8F:83:4A:57:CF:B9:53:A6:31:3E:37
            X509v3 Authority Key Identifier: 
                keyid:CC:9C:E3:2F:21:5B:D6:76:F3:8F:83:4A:57:CF:B9:53:A6:31:3E:37

    Signature Algorithm: sha1WithRSAEncryption
         35:ca:b9:b9:e0:0b:31:bb:d0:e1:a1:58:4a:42:e4:c1:65:a9:
         ce:89:6b:5b:48:ea:bd:f9:26:dd:82:9d:e1:bf:0e:06:cc:14:
         b1:2e:c3:57:c0:03:2b:74:02:a1:e8:db:6e:53:71:ec:79:b1:
         36:a1:98:48:c8:a4:4d:7d:d8:f8:c5:2e:5d:a6:d2:e4:cc:e2:
         7c:95:dd:31:99:ab:42:5e:c7:d7:26:b4:a0:de:a5:d8:42:fd:
         b6:53:9f:61:ca:c1:07:13:09:c1:23:79:49:f2:1c:0d:52:50:
         85:b8:01:85:aa:80:5d:11:cc:a6:f5:34:6f:a7:ec:01:1e:df:
         0f:15:9e:8f:b8:54:30:ee:83:27:88:5f:c0:02:75:97:1b:2c:
         7d:86:9e:2d:94:73:43:32:a4:9c:cd:00:73:c1:2c:27:dc:1c:
         55:ec:7c:1b:06:e1:5c:51:b5:2f:dc:72:80:ac:a8:92:80:d1:
         2f:2f:39:e9:4e:31:d6:58:ff:0e:c8:ca:67:c0:a2:a1:e9:97:
         dc:b6:b2:33:4f:d5:58:e2:ad:71:6d:ea:ef:49:1b:37:9b:1f:
         68:65:e5:03:2a:97:a2:2b:2b:f4:64:89:14:0c:1d:28:69:95:
         5a:b2:74:10:8f:e1:14:b4:1b:ff:46:a7:45:9c:86:2c:3d:de:
         ed:13:e5:c6
-----BEGIN CERTIFICATE-----
MIIDxjCCAq6gAwIBAgIBATANBgkqhkiG9w0BAQUFADB0MRMwEQYKCZImiZPyLGQB
GRYDb3JnMRYwFAYKCZImiZPyLGQBGRYGc2ltcGxlMRMwEQYDVQQKDApTaW1wbGUg
SW5jMRcwFQYDVQQLDA5TaW1wbGUgUm9vdCBDQTEXMBUGA1UEAwwOU2ltcGxlIFJv
b3QgQ0EwHhcNMTkwNDIyMDY0OTMwWhcNMjkwNDIxMDY0OTMwWjB0MRMwEQYKCZIm
iZPyLGQBGRYDb3JnMRYwFAYKCZImiZPyLGQBGRYGc2ltcGxlMRMwEQYDVQQKDApT
aW1wbGUgSW5jMRcwFQYDVQQLDA5TaW1wbGUgUm9vdCBDQTEXMBUGA1UEAwwOU2lt
cGxlIFJvb3QgQ0EwggEiMA0GCSqGSIb3DQEBAQUAA4IBDwAwggEKAoIBAQC/ZJQ8
zKztrlUQSBARCpGJ/aWKNL0IljPWESjfqBN8E21v6VtA2k+ealNo5VLVRCtUXIq2
57+yZ7BE0SeD3/Qz3+2EhFM0J9bbHMSrA1aoDX62msuEqXFeQdr2B/xvorOgWnRS
6NSyquJFTRngbgJMPY+yoNVrMf4FuzcFsImzcrWA8ko1KSXJB4qlO3fUbLzxTlXo
v/CroASDbZz0KLVrJzSlVFmEZ9wlgsLdTMkOs7CXE0KalxhrVlB4u7HCHEdUbDxJ
QXpszjo1DOhDRlfeM7Rj7A+HsCCHBci0ejp2lEF4iB/C83MLLOUHUV8OZrA7dCSR
op3jvaFcExkTQ4xRAgMBAAGjYzBhMA4GA1UdDwEB/wQEAwIBBjAPBgNVHRMBAf8E
BTADAQH/MB0GA1UdDgQWBBTMnOMvIVvWdvOPg0pXz7lTpjE+NzAfBgNVHSMEGDAW
gBTMnOMvIVvWdvOPg0pXz7lTpjE+NzANBgkqhkiG9w0BAQUFAAOCAQEANcq5ueAL
MbvQ4aFYSkLkwWWpzolrW0jqvfkm3YKd4b8OBswUsS7DV8ADK3QCoejbblNx7Hmx
NqGYSMikTX3Y+MUuXabS5MzifJXdMZmrQl7H1ya0oN6l2EL9tlOfYcrBBxMJwSN5
SfIcDVJQhbgBhaqAXRHMpvU0b6fsAR7fDxWej7hUMO6DJ4hfwAJ1lxssfYaeLZRz
QzKknM0Ac8EsJ9wcVex8GwbhXFG1L9xygKyokoDRLy856U4x1lj/DsjKZ8CioemX
3LayM0/VWOKtcW3q70kbN5sfaGXlAyqXoisr9GSJFAwdKGmVWrJ0EI/hFLQb/0an
RZyGLD3e7RPlxg==
-----END CERTIFICATE-----
